target datalayout = "e-m:e-p270:32:32-p271:32:32-p272:64:64-i64:64-i128:128-f80:128-n8:16:32:64-S128"
target triple = "x86_64-pc-linux-gnu"

%class.QString = type { %struct.QArrayDataPointer }
%struct.QArrayDataPointer = type { ptr, ptr, i64 }
%class.QPen = type { ptr }
%class.QBrush = type { %"class.std::unique_ptr" }
%"class.std::unique_ptr" = type { %"struct.std::__uniq_ptr_data" }
%"struct.std::__uniq_ptr_data" = type { %"class.std::__uniq_ptr_impl" }
%"class.std::__uniq_ptr_impl" = type { %"class.std::tuple" }
%"class.std::tuple" = type { %"struct.std::_Tuple_impl" }
%"struct.std::_Tuple_impl" = type { %"struct.std::_Head_base.32" }
%"struct.std::_Head_base.32" = type { ptr }
%class.QSharedPointer = type { ptr, ptr }
%class.QVariant = type { %"struct.QVariant::Private" }
%"struct.QVariant::Private" = type { %union.anon, i64 }
%union.anon = type { ptr, [16 x i8] }
%class.QFlags.30 = type { i32 }
%class.RtpPlayerDialog = type { %class.RtpBaseDialog.base, ptr, ptr, ptr, double, double, double, double, double, double, ptr, ptr, %class.QString, %class.QSharedPointer, %class.QSharedPointer.1, i8, %class.QList.2, ptr, %class.QTimer, i64, i32, ptr, i8, ptr, ptr, ptr, ptr, ptr, %class.QMultiHash, i8, i32, i8, double, ptr, %class.QPoint }
%class.RtpBaseDialog.base = type { %class.WiresharkDialog.base }
%class.WiresharkDialog.base = type <{ %class.GeometryStateDialog, ptr, i8, [7 x i8], %class.QString, %class.QList, i32, i8 }>
%class.GeometryStateDialog = type { %class.QDialog, %class.QString, ptr }
%class.QDialog = type { %class.QWidget }
%class.QWidget = type { %class.QObject, %class.QPaintDevice.base, ptr }
%class.QObject = type { ptr, %class.QScopedPointer }
%class.QScopedPointer = type { ptr }
%class.QPaintDevice.base = type <{ ptr, i16 }>
%class.QList = type { %struct.QArrayDataPointer.0 }
%struct.QArrayDataPointer.0 = type { ptr, ptr, i64 }
%class.QSharedPointer.1 = type { ptr, ptr }
%class.QList.2 = type { %struct.QArrayDataPointer.5 }
%struct.QArrayDataPointer.5 = type { ptr, ptr, i64 }
%class.QTimer = type { %class.QObject }
%class.QMultiHash = type { ptr, i64 }
%class.QPoint = type { i32, i32 }
%class.Ui_RtpPlayerDialog = type { ptr, ptr, ptr, ptr, ptr, ptr, ptr, ptr, ptr, ptr, ptr, ptr, ptr, ptr, ptr, ptr, ptr, ptr, ptr, ptr, ptr, ptr, ptr, ptr, ptr, ptr, ptr, ptr, ptr, ptr, ptr, ptr, ptr, ptr, ptr, ptr, ptr, ptr, ptr, ptr, ptr, ptr, ptr, ptr, ptr, ptr, ptr, ptr, ptr, ptr, ptr, ptr, ptr, ptr, ptr, ptr, ptr, ptr, ptr, ptr, ptr, ptr, ptr, ptr, ptr, ptr, ptr, ptr }
%class.QCustomPlot = type <{ %class.QWidget, ptr, ptr, ptr, ptr, ptr, %class.QRect, double, ptr, i8, [7 x i8], %class.QList.14, %class.QList.18, %class.QList.22, %class.QList.26, %class.QFlags, %class.QFlags, %class.QFlags.30, i32, i8, [7 x i8], %class.QBrush, %class.QPixmap, %class.QPixmap, i8, [3 x i8], i32, ptr, %class.QFlags.34, i32, i32, [4 x i8], ptr, i8, [7 x i8], %class.QList.35, %class.QPoint, i8, [7 x i8], %class.QPointer, %class.QPointer, %class.QVariant, %class.QVariant, i8, i8, [6 x i8], double, double, i32, %class.QFlags, i8, [7 x i8] }>
%class.QRect = type { i32, i32, i32, i32 }
%class.QList.14 = type { %struct.QArrayDataPointer.17 }
%struct.QArrayDataPointer.17 = type { ptr, ptr, i64 }
%class.QList.18 = type { %struct.QArrayDataPointer.21 }
%struct.QArrayDataPointer.21 = type { ptr, ptr, i64 }
%class.QList.22 = type { %struct.QArrayDataPointer.25 }
%struct.QArrayDataPointer.25 = type { ptr, ptr, i64 }
%class.QList.26 = type { %struct.QArrayDataPointer.29 }
%struct.QArrayDataPointer.29 = type { ptr, ptr, i64 }
%class.QPixmap = type { %class.QPaintDevice.base, %class.QExplicitlySharedDataPointer.33 }
%class.QExplicitlySharedDataPointer.33 = type { ptr }
%class.QFlags.34 = type { i32 }
%class.QList.35 = type { %struct.QArrayDataPointer.38 }
%struct.QArrayDataPointer.38 = type { ptr, ptr, i64 }
%class.QPointer = type { %class.QWeakPointer }
%class.QWeakPointer = type { ptr, ptr }
%class.QFlags = type { i32 }
%class.QCPItemStraightLine = type { %class.QCPAbstractItem.base, ptr, ptr, %class.QPen, %class.QPen }
%class.QCPAbstractItem.base = type <{ %class.QCPLayerable.base, i8, [6 x i8], %class.QPointer.43, %class.QList.44, %class.QList.48, i8, i8 }>
%class.QCPLayerable.base = type <{ %class.QObject, i8, [7 x i8], ptr, %class.QPointer, ptr, i8 }>
%class.QPointer.43 = type { %class.QWeakPointer }
%class.QList.44 = type { %struct.QArrayDataPointer.47 }
%struct.QArrayDataPointer.47 = type { ptr, ptr, i64 }
%class.QList.48 = type { %struct.QArrayDataPointer.51 }
%struct.QArrayDataPointer.51 = type { ptr, ptr, i64 }

; Function Attrs: inlinehint mustprogress nounwind null_pointer_is_valid sspstrong uwtable
define linkonce_odr noundef align 8 dereferenceable(8) ptr @_Z4qMaxIdERKT_S2_S2_(ptr noundef align 8 dereferenceable(8) %0, ptr noundef align 8 dereferenceable(8) %1) #7 comdat {
  %3 = alloca ptr, align 8
  %4 = alloca ptr, align 8
  store ptr %0, ptr %3, align 8
  store ptr %1, ptr %4, align 8
  %5 = load ptr, ptr %3, align 8
  %6 = load double, ptr %5, align 8
  %7 = load ptr, ptr %4, align 8
  %8 = load double, ptr %7, align 8
  %9 = fcmp olt double %6, %8
  br i1 %9, label %10, label %12

10:                                               ; preds = %2
  %11 = load ptr, ptr %4, align 8
  br label %14

12:                                               ; preds = %2
  %13 = load ptr, ptr %3, align 8
  br label %14

14:                                               ; preds = %12, %10
  %15 = phi ptr [ %11, %10 ], [ %13, %12 ]
  ret ptr %15
}

; Function Attrs: inlinehint mustprogress nounwind null_pointer_is_valid sspstrong uwtable
define linkonce_odr noundef align 8 dereferenceable(8) ptr @_Z4qMinIdERKT_S2_S2_(ptr noundef align 8 dereferenceable(8) %0, ptr noundef align 8 dereferenceable(8) %1) #7 comdat {
  %3 = alloca ptr, align 8
  %4 = alloca ptr, align 8
  store ptr %0, ptr %3, align 8
  store ptr %1, ptr %4, align 8
  %5 = load ptr, ptr %3, align 8
  %6 = load double, ptr %5, align 8
  %7 = load ptr, ptr %4, align 8
  %8 = load double, ptr %7, align 8
  %9 = fcmp olt double %6, %8
  br i1 %9, label %10, label %12

10:                                               ; preds = %2
  %11 = load ptr, ptr %3, align 8
  br label %14

12:                                               ; preds = %2
  %13 = load ptr, ptr %4, align 8
  br label %14

14:                                               ; preds = %12, %10
  %15 = phi ptr [ %11, %10 ], [ %13, %12 ]
  ret ptr %15
}

; Function Attrs: mustprogress null_pointer_is_valid sspstrong uwtable
define noundef double @_ZN15RtpPlayerDialog18getStartPlayMarkerEv(ptr noundef align 8 dereferenceable_or_null(472) %0) #0 align 2 {
  %2 = alloca ptr, align 8
  %3 = alloca double, align 8
  store ptr %0, ptr %2, align 8
  %4 = load ptr, ptr %2, align 8
  call void @llvm.lifetime.start.p0(i64 8, ptr %3) #26
  %5 = getelementptr inbounds nuw %class.RtpPlayerDialog, ptr %4, i32 0, i32 1
  %6 = load ptr, ptr %5, align 8
  %7 = getelementptr inbounds nuw %class.Ui_RtpPlayerDialog, ptr %6, i32 0, i32 65
  %8 = load ptr, ptr %7, align 8
  %9 = call noundef zeroext i1 @_ZNK15QAbstractButton9isCheckedEv(ptr noundef align 8 dereferenceable_or_null(40) %8)
  br i1 %9, label %10, label %16

10:                                               ; preds = %1
  %11 = getelementptr inbounds nuw %class.RtpPlayerDialog, ptr %4, i32 0, i32 8
  %12 = load double, ptr %11, align 8
  %13 = getelementptr inbounds nuw %class.RtpPlayerDialog, ptr %4, i32 0, i32 5
  %14 = load double, ptr %13, align 8
  %15 = fadd double %12, %14
  store double %15, ptr %3, align 8
  br label %19

16:                                               ; preds = %1
  %17 = getelementptr inbounds nuw %class.RtpPlayerDialog, ptr %4, i32 0, i32 8
  %18 = load double, ptr %17, align 8
  store double %18, ptr %3, align 8
  br label %19

19:                                               ; preds = %16, %10
  %20 = load double, ptr %3, align 8
  call void @llvm.lifetime.end.p0(i64 8, ptr %3) #26
  ret double %20
}

; Function Attrs: inlinehint mustprogress null_pointer_is_valid sspstrong uwtable
define linkonce_odr noundef align 8 dereferenceable(8) ptr @_Z6qBoundIdERKT_S2_S2_S2_(ptr noundef align 8 dereferenceable(8) %0, ptr noundef align 8 dereferenceable(8) %1, ptr noundef align 8 dereferenceable(8) %2) #8 comdat {
  %4 = alloca ptr, align 8
  %5 = alloca ptr, align 8
  %6 = alloca ptr, align 8
  store ptr %0, ptr %4, align 8
  store ptr %1, ptr %5, align 8
  store ptr %2, ptr %6, align 8
  %7 = load ptr, ptr %4, align 8
  %8 = load ptr, ptr %6, align 8
  %9 = load ptr, ptr %5, align 8
  %10 = call noundef align 8 dereferenceable(8) ptr @_Z4qMinIdERKT_S2_S2_(ptr noundef align 8 dereferenceable(8) %8, ptr noundef align 8 dereferenceable(8) %9)
  %11 = call noundef align 8 dereferenceable(8) ptr @_Z4qMaxIdERKT_S2_S2_(ptr noundef align 8 dereferenceable(8) %7, ptr noundef align 8 dereferenceable(8) %10)
  ret ptr %11
}

; Function Attrs: mustprogress null_pointer_is_valid sspstrong uwtable
define void @_ZN15RtpPlayerDialog19drawStartPlayMarkerEv(ptr noundef align 8 dereferenceable_or_null(472) %0) #0 align 2 {
  %2 = alloca ptr, align 8
  %3 = alloca double, align 8
  store ptr %0, ptr %2, align 8
  %4 = load ptr, ptr %2, align 8
  call void @llvm.lifetime.start.p0(i64 8, ptr %3) #26
  %5 = call noundef double @_ZN15RtpPlayerDialog18getStartPlayMarkerEv(ptr noundef align 8 dereferenceable_or_null(472) %4)
  store double %5, ptr %3, align 8
  %6 = getelementptr inbounds nuw %class.RtpPlayerDialog, ptr %4, i32 0, i32 11
  %7 = load ptr, ptr %6, align 8
  %8 = getelementptr inbounds nuw %class.QCPItemStraightLine, ptr %7, i32 0, i32 1
  %9 = load ptr, ptr %8, align 8
  %10 = load double, ptr %3, align 8
  call void @_ZN15QCPItemPosition9setCoordsEdd(ptr noundef align 8 dereferenceable_or_null(160) %9, double noundef %10, double noundef 0.000000e+00)
  %11 = getelementptr inbounds nuw %class.RtpPlayerDialog, ptr %4, i32 0, i32 11
  %12 = load ptr, ptr %11, align 8
  %13 = getelementptr inbounds nuw %class.QCPItemStraightLine, ptr %12, i32 0, i32 2
  %14 = load ptr, ptr %13, align 8
  %15 = load double, ptr %3, align 8
  call void @_ZN15QCPItemPosition9setCoordsEdd(ptr noundef align 8 dereferenceable_or_null(160) %14, double noundef %15, double noundef 1.000000e+00)
  call void @_ZN15RtpPlayerDialog15updateHintLabelEv(ptr noundef align 8 dereferenceable_or_null(472) %4)
  call void @llvm.lifetime.end.p0(i64 8, ptr %3) #26
  ret void
}

; Function Attrs: mustprogress null_pointer_is_valid sspstrong uwtable
define void @_ZN15RtpPlayerDialog18setStartPlayMarkerEd(ptr noundef align 8 dereferenceable_or_null(472) %0, double noundef %1) #0 align 2 {
  %3 = alloca ptr, align 8
  %4 = alloca double, align 8
  %5 = alloca double, align 8
  %6 = alloca double, align 8
  store ptr %0, ptr %3, align 8
  store double %1, ptr %4, align 8
  %7 = load ptr, ptr %3, align 8
  %8 = getelementptr inbounds nuw %class.RtpPlayerDialog, ptr %7, i32 0, i32 1
  %9 = load ptr, ptr %8, align 8
  %10 = getelementptr inbounds nuw %class.Ui_RtpPlayerDialog, ptr %9, i32 0, i32 65
  %11 = load ptr, ptr %10, align 8
  %12 = call noundef zeroext i1 @_ZNK15QAbstractButton9isCheckedEv(ptr noundef align 8 dereferenceable_or_null(40) %11)
  br i1 %12, label %13, label %27

13:                                               ; preds = %2
  %14 = getelementptr inbounds nuw %class.RtpPlayerDialog, ptr %7, i32 0, i32 5
  call void @llvm.lifetime.start.p0(i64 8, ptr %5) #26
  %15 = getelementptr inbounds nuw %class.RtpPlayerDialog, ptr %7, i32 0, i32 5
  %16 = load double, ptr %15, align 8
  %17 = getelementptr inbounds nuw %class.RtpPlayerDialog, ptr %7, i32 0, i32 7
  %18 = load double, ptr %17, align 8
  %19 = fadd double %16, %18
  store double %19, ptr %5, align 8
  %20 = call noundef align 8 dereferenceable(8) ptr @_Z6qBoundIdERKT_S2_S2_S2_(ptr noundef align 8 dereferenceable(8) %14, ptr noundef align 8 dereferenceable(8) %4, ptr noundef align 8 dereferenceable(8) %5)
  %21 = load double, ptr %20, align 8
  store double %21, ptr %4, align 8
  call void @llvm.lifetime.end.p0(i64 8, ptr %5) #26
  %22 = load double, ptr %4, align 8
  %23 = getelementptr inbounds nuw %class.RtpPlayerDialog, ptr %7, i32 0, i32 5
  %24 = load double, ptr %23, align 8
  %25 = fsub double %22, %24
  %26 = getelementptr inbounds nuw %class.RtpPlayerDialog, ptr %7, i32 0, i32 8
  store double %25, ptr %26, align 8
  br label %38

27:                                               ; preds = %2
  %28 = getelementptr inbounds nuw %class.RtpPlayerDialog, ptr %7, i32 0, i32 4
  call void @llvm.lifetime.start.p0(i64 8, ptr %6) #26
  %29 = getelementptr inbounds nuw %class.RtpPlayerDialog, ptr %7, i32 0, i32 4
  %30 = load double, ptr %29, align 8
  %31 = getelementptr inbounds nuw %class.RtpPlayerDialog, ptr %7, i32 0, i32 7
  %32 = load double, ptr %31, align 8
  %33 = fadd double %30, %32
  store double %33, ptr %6, align 8
  %34 = call noundef align 8 dereferenceable(8) ptr @_Z6qBoundIdERKT_S2_S2_S2_(ptr noundef align 8 dereferenceable(8) %28, ptr noundef align 8 dereferenceable(8) %4, ptr noundef align 8 dereferenceable(8) %6)
  %35 = load double, ptr %34, align 8
  store double %35, ptr %4, align 8
  call void @llvm.lifetime.end.p0(i64 8, ptr %6) #26
  %36 = load double, ptr %4, align 8
  %37 = getelementptr inbounds nuw %class.RtpPlayerDialog, ptr %7, i32 0, i32 8
  store double %36, ptr %37, align 8
  br label %38

38:                                               ; preds = %27, %13
  ret void
}

; Function Attrs: mustprogress null_pointer_is_valid sspstrong uwtable
define void @_ZN15RtpPlayerDialog22on_todCheckBox_toggledEb(ptr noundef align 8 dereferenceable_or_null(472) %0, i1 noundef zeroext %1) #0 align 2 {
  %3 = alloca ptr, align 8
  %4 = alloca i8, align 1
  %5 = alloca ptr, align 8
  %6 = alloca double, align 8
  store ptr %0, ptr %3, align 8
  %7 = zext i1 %1 to i8
  store i8 %7, ptr %4, align 1
  %8 = load ptr, ptr %3, align 8
  call void @llvm.lifetime.start.p0(i64 8, ptr %5) #26
  %9 = getelementptr inbounds nuw %class.RtpPlayerDialog, ptr %8, i32 0, i32 1
  %10 = load ptr, ptr %9, align 8
  %11 = getelementptr inbounds nuw %class.Ui_RtpPlayerDialog, ptr %10, i32 0, i32 39
  %12 = load ptr, ptr %11, align 8
  %13 = getelementptr inbounds nuw %class.QCustomPlot, ptr %12, i32 0, i32 1
  %14 = load ptr, ptr %13, align 8
  store ptr %14, ptr %5, align 8
  call void @llvm.lifetime.start.p0(i64 8, ptr %6) #26
  call void @_ZN15RtpPlayerDialog10createPlotEb(ptr noundef align 8 dereferenceable_or_null(472) %8, i1 noundef zeroext false)
  %15 = getelementptr inbounds nuw %class.RtpPlayerDialog, ptr %8, i32 0, i32 1
  %16 = load ptr, ptr %15, align 8
  %17 = getelementptr inbounds nuw %class.Ui_RtpPlayerDialog, ptr %16, i32 0, i32 65
  %18 = load ptr, ptr %17, align 8
  %19 = call noundef zeroext i1 @_ZNK15QAbstractButton9isCheckedEv(ptr noundef align 8 dereferenceable_or_null(40) %18)
  br i1 %19, label %20, label %34

20:                                               ; preds = %2
  %21 = getelementptr inbounds nuw %class.RtpPlayerDialog, ptr %8, i32 0, i32 5
  %22 = load double, ptr %21, align 8
  %23 = getelementptr inbounds nuw %class.RtpPlayerDialog, ptr %8, i32 0, i32 8
  %24 = load double, ptr %23, align 8
  %25 = fadd double %22, %24
  %26 = getelementptr inbounds nuw %class.RtpPlayerDialog, ptr %8, i32 0, i32 4
  %27 = load double, ptr %26, align 8
  %28 = fsub double %25, %27
  call void @_ZN15RtpPlayerDialog18setStartPlayMarkerEd(ptr noundef align 8 dereferenceable_or_null(472) %8, double noundef %28)
  %29 = getelementptr inbounds nuw %class.RtpPlayerDialog, ptr %8, i32 0, i32 5
  %30 = load double, ptr %29, align 8
  %31 = getelementptr inbounds nuw %class.RtpPlayerDialog, ptr %8, i32 0, i32 4
  %32 = load double, ptr %31, align 8
  %33 = fsub double %30, %32
  store double %33, ptr %6, align 8
  br label %46

34:                                               ; preds = %2
  %35 = getelementptr inbounds nuw %class.RtpPlayerDialog, ptr %8, i32 0, i32 4
  %36 = load double, ptr %35, align 8
  %37 = getelementptr inbounds nuw %class.RtpPlayerDialog, ptr %8, i32 0, i32 8
  %38 = load double, ptr %37, align 8
  %39 = fadd double %36, %38
  call void @_ZN15RtpPlayerDialog18setStartPlayMarkerEd(ptr noundef align 8 dereferenceable_or_null(472) %8, double noundef %39)
  %40 = getelementptr inbounds nuw %class.RtpPlayerDialog, ptr %8, i32 0, i32 5
  %41 = load double, ptr %40, align 8
  %42 = fneg double %41
  %43 = getelementptr inbounds nuw %class.RtpPlayerDialog, ptr %8, i32 0, i32 4
  %44 = load double, ptr %43, align 8
  %45 = fadd double %42, %44
  store double %45, ptr %6, align 8
  br label %46

46:                                               ; preds = %34, %20
  %47 = load ptr, ptr %5, align 8
  %48 = load double, ptr %6, align 8
  call void @_ZN7QCPAxis9moveRangeEd(ptr noundef align 8 dereferenceable_or_null(472) %47, double noundef %48)
  call void @_ZN15RtpPlayerDialog19drawStartPlayMarkerEv(ptr noundef align 8 dereferenceable_or_null(472) %8)
  %49 = getelementptr inbounds nuw %class.RtpPlayerDialog, ptr %8, i32 0, i32 1
  %50 = load ptr, ptr %49, align 8
  %51 = getelementptr inbounds nuw %class.Ui_RtpPlayerDialog, ptr %50, i32 0, i32 39
  %52 = load ptr, ptr %51, align 8
  call void @_ZN11QCustomPlot6replotENS_15RefreshPriorityE(ptr noundef align 8 dereferenceable_or_null(513) %52, i32 noundef 2)
  call void @llvm.lifetime.end.p0(i64 8, ptr %6) #26
  call void @llvm.lifetime.end.p0(i64 8, ptr %5) #26
  ret void
}