; Function Attrs: mustprogress null_pointer_is_valid sspstrong uwtable
define void @_ZN15RtpPlayerDialog22on_todCheckBox_toggledEb(ptr noundef align 8 dereferenceable_or_null(472) %0, i1 noundef zeroext %1) local_unnamed_addr #0 align 2 {
  %3 = getelementptr inbounds nuw i8, ptr %0, i64 144
  %4 = load ptr, ptr %3, align 8
  %5 = getelementptr inbounds nuw i8, ptr %4, i64 312
  %6 = load ptr, ptr %5, align 8
  %7 = getelementptr inbounds nuw i8, ptr %6, i64 40
  %8 = load ptr, ptr %7, align 8
  tail call void @_ZN15RtpPlayerDialog10createPlotEb(ptr noundef align 8 dereferenceable_or_null(472) %0, i1 noundef zeroext false)
  %9 = load ptr, ptr %3, align 8
  %10 = getelementptr inbounds nuw i8, ptr %9, i64 520
  %11 = load ptr, ptr %10, align 8
  %12 = tail call noundef zeroext i1 @_ZNK15QAbstractButton9isCheckedEv(ptr noundef align 8 dereferenceable_or_null(40) %11)
  %13 = getelementptr inbounds nuw i8, ptr %0, i64 200
  %14 = load double, ptr %13, align 8
  br i1 %12, label %15, label %46

15:                                               ; preds = %2
  %16 = getelementptr inbounds nuw i8, ptr %0, i64 176
  %17 = load double, ptr %16, align 8
  %18 = fadd double %17, %14
  %19 = getelementptr inbounds nuw i8, ptr %0, i64 168
  %20 = load double, ptr %19, align 8
  %21 = fsub double %18, %20
  %22 = load ptr, ptr %3, align 8
  %23 = getelementptr inbounds nuw i8, ptr %22, i64 520
  %24 = load ptr, ptr %23, align 8
  %25 = tail call noundef zeroext i1 @_ZNK15QAbstractButton9isCheckedEv(ptr noundef align 8 dereferenceable_or_null(40) %24)
  %26 = getelementptr inbounds nuw i8, ptr %0, i64 192
  %27 = load double, ptr %26, align 8
  br i1 %25, label %28, label %36

28:                                               ; preds = %15
  %29 = load double, ptr %16, align 8
  %30 = fadd double %27, %29
  %31 = fcmp olt double %30, %21
  %32 = select i1 %31, double %30, double %21
  %33 = fcmp olt double %29, %32
  %34 = select i1 %33, double %32, double %29
  %35 = fsub double %34, %29
  %.pre7 = load double, ptr %19, align 8
  br label %_ZN15RtpPlayerDialog18setStartPlayMarkerEd.exit

36:                                               ; preds = %15
  %37 = load double, ptr %19, align 8
  %38 = fadd double %27, %37
  %39 = fcmp olt double %38, %21
  %40 = select i1 %39, double %38, double %21
  %41 = fcmp olt double %37, %40
  %42 = select i1 %41, double %40, double %37
  %.pre6 = load double, ptr %16, align 8
  br label %_ZN15RtpPlayerDialog18setStartPlayMarkerEd.exit

_ZN15RtpPlayerDialog18setStartPlayMarkerEd.exit:  ; preds = %28, %36
  %43 = phi double [ %.pre7, %28 ], [ %37, %36 ]
  %44 = phi double [ %29, %28 ], [ %.pre6, %36 ]
  %.sink.i = phi double [ %35, %28 ], [ %42, %36 ]
  store double %.sink.i, ptr %13, align 8
  %45 = fsub double %44, %43
  br label %75

46:                                               ; preds = %2
  %47 = getelementptr inbounds nuw i8, ptr %0, i64 168
  %48 = load double, ptr %47, align 8
  %49 = fadd double %48, %14
  %50 = load ptr, ptr %3, align 8
  %51 = getelementptr inbounds nuw i8, ptr %50, i64 520
  %52 = load ptr, ptr %51, align 8
  %53 = tail call noundef zeroext i1 @_ZNK15QAbstractButton9isCheckedEv(ptr noundef align 8 dereferenceable_or_null(40) %52)
  %54 = getelementptr inbounds nuw i8, ptr %0, i64 192
  %55 = load double, ptr %54, align 8
  br i1 %53, label %56, label %65

56:                                               ; preds = %46
  %57 = getelementptr inbounds nuw i8, ptr %0, i64 176
  %58 = load double, ptr %57, align 8
  %59 = fadd double %55, %58
  %60 = fcmp olt double %59, %49
  %61 = select i1 %60, double %59, double %49
  %62 = fcmp olt double %58, %61
  %63 = select i1 %62, double %61, double %58
  %64 = fsub double %63, %58
  %.pre5 = load double, ptr %47, align 8
  br label %_ZN15RtpPlayerDialog18setStartPlayMarkerEd.exit4

65:                                               ; preds = %46
  %66 = load double, ptr %47, align 8
  %67 = fadd double %55, %66
  %68 = fcmp olt double %67, %49
  %69 = select i1 %68, double %67, double %49
  %70 = fcmp olt double %66, %69
  %71 = select i1 %70, double %69, double %66
  %.phi.trans.insert = getelementptr inbounds nuw i8, ptr %0, i64 176
  %.pre = load double, ptr %.phi.trans.insert, align 8
  br label %_ZN15RtpPlayerDialog18setStartPlayMarkerEd.exit4

_ZN15RtpPlayerDialog18setStartPlayMarkerEd.exit4: ; preds = %56, %65
  %72 = phi double [ %.pre5, %56 ], [ %66, %65 ]
  %73 = phi double [ %58, %56 ], [ %.pre, %65 ]
  %.sink.i3 = phi double [ %64, %56 ], [ %71, %65 ]
  store double %.sink.i3, ptr %13, align 8
  %74 = fsub double %72, %73
  br label %75

75:                                               ; preds = %_ZN15RtpPlayerDialog18setStartPlayMarkerEd.exit4, %_ZN15RtpPlayerDialog18setStartPlayMarkerEd.exit
  %.0 = phi double [ %45, %_ZN15RtpPlayerDialog18setStartPlayMarkerEd.exit ], [ %74, %_ZN15RtpPlayerDialog18setStartPlayMarkerEd.exit4 ]
  tail call void @_ZN7QCPAxis9moveRangeEd(ptr noundef align 8 dereferenceable_or_null(472) %8, double noundef %.0)
  %76 = load ptr, ptr %3, align 8
  %77 = getelementptr inbounds nuw i8, ptr %76, i64 520
  %78 = load ptr, ptr %77, align 8
  %79 = tail call noundef zeroext i1 @_ZNK15QAbstractButton9isCheckedEv(ptr noundef align 8 dereferenceable_or_null(40) %78)
  %80 = getelementptr inbounds nuw i8, ptr %0, i64 200
  %81 = load double, ptr %80, align 8
  br i1 %79, label %82, label %_ZN15RtpPlayerDialog19drawStartPlayMarkerEv.exit

82:                                               ; preds = %75
  %83 = getelementptr inbounds nuw i8, ptr %0, i64 176
  %84 = load double, ptr %83, align 8
  %85 = fadd double %81, %84
  br label %_ZN15RtpPlayerDialog19drawStartPlayMarkerEv.exit

_ZN15RtpPlayerDialog19drawStartPlayMarkerEv.exit: ; preds = %75, %82
  %.0.i.i = phi double [ %85, %82 ], [ %81, %75 ]
  %86 = getelementptr inbounds nuw i8, ptr %0, i64 224
  %87 = load ptr, ptr %86, align 8
  %88 = getelementptr inbounds nuw i8, ptr %87, i64 136
  %89 = load ptr, ptr %88, align 8
  tail call void @_ZN15QCPItemPosition9setCoordsEdd(ptr noundef align 8 dereferenceable_or_null(160) %89, double noundef %.0.i.i, double noundef 0.000000e+00)
  %90 = load ptr, ptr %86, align 8
  %91 = getelementptr inbounds nuw i8, ptr %90, i64 144
  %92 = load ptr, ptr %91, align 8
  tail call void @_ZN15QCPItemPosition9setCoordsEdd(ptr noundef align 8 dereferenceable_or_null(160) %92, double noundef %.0.i.i, double noundef 1.000000e+00)
  tail call void @_ZN15RtpPlayerDialog15updateHintLabelEv(ptr noundef align 8 dereferenceable_or_null(472) %0)
  %93 = load ptr, ptr %3, align 8
  %94 = getelementptr inbounds nuw i8, ptr %93, i64 312
  %95 = load ptr, ptr %94, align 8
  tail call void @_ZN11QCustomPlot6replotENS_15RefreshPriorityE(ptr noundef align 8 dereferenceable_or_null(513) %95, i32 noundef 2)
  ret void
}